target datalayout = "e-m:e-p270:32:32-p271:32:32-p272:64:64-i64:64-i128:128-f80:128-n8:16:32:64-S128"
target triple = "x86_64-pc-linux-gnu"

%struct.IndexClauseSet = type { i8, [32 x ptr] }
%struct.ForEachState = type { ptr, i32 }
%struct.QualCost = type { double, double }
%struct.List = type { i32, i32, i32, ptr, [0 x %union.ListCell] }
%union.ListCell = type { ptr }
%struct.IndexOptInfo = type { i32, i32, i32, ptr, i32, double, i32, i32, i32, ptr, ptr, ptr, ptr, ptr, ptr, ptr, ptr, ptr, i32, ptr, ptr, ptr, ptr, i8, i8, i8, i8, i8, i8, i8, i8, i8, i8, i8, i8, i8, ptr }
%struct.RestrictInfo = type { i32, ptr, i8, i8, i8, i8, i8, i8, i32, i32, i32, ptr, ptr, ptr, ptr, ptr, ptr, ptr, i32, ptr, %struct.QualCost, double, double, ptr, ptr, ptr, ptr, ptr, ptr, i8, i32, double, double, double, double, i32, i32 }
%struct.IndexClause = type { i32, ptr, ptr, i8, i16, ptr }

; Function Attrs: nounwind uwtable
define internal void @get_join_index_paths(ptr noundef %0, ptr noundef %1, ptr noundef %2, ptr noundef %3, ptr noundef %4, ptr noundef %5, ptr noundef %6, ptr noundef %7, ptr noundef %8) #0 {
  %10 = alloca ptr, align 8
  %11 = alloca ptr, align 8
  %12 = alloca ptr, align 8
  %13 = alloca ptr, align 8
  %14 = alloca ptr, align 8
  %15 = alloca ptr, align 8
  %16 = alloca ptr, align 8
  %17 = alloca ptr, align 8
  %18 = alloca ptr, align 8
  %19 = alloca %struct.IndexClauseSet, align 8
  %20 = alloca i32, align 4
  %21 = alloca i32, align 4
  %22 = alloca ptr, align 8
  %23 = alloca i32, align 4
  %24 = alloca i64, align 8
  %25 = alloca ptr, align 8
  %26 = alloca ptr, align 8
  %27 = alloca ptr, align 8
  %28 = alloca %struct.ForEachState, align 8
  %29 = alloca ptr, align 8
  %30 = alloca %struct.ForEachState, align 8
  %31 = alloca ptr, align 8
  store ptr %0, ptr %10, align 8
  store ptr %1, ptr %11, align 8
  store ptr %2, ptr %12, align 8
  store ptr %3, ptr %13, align 8
  store ptr %4, ptr %14, align 8
  store ptr %5, ptr %15, align 8
  store ptr %6, ptr %16, align 8
  store ptr %7, ptr %17, align 8
  store ptr %8, ptr %18, align 8
  call void @llvm.lifetime.start.p0(i64 264, ptr %19) #7
  call void @llvm.lifetime.start.p0(i64 4, ptr %20) #7
  %32 = load ptr, ptr %18, align 8
  %33 = load ptr, ptr %32, align 8
  %34 = load ptr, ptr %17, align 8
  %35 = call zeroext i1 @list_member(ptr noundef %33, ptr noundef %34)
  br i1 %35, label %36, label %37

36:                                               ; preds = %9
  store i32 1, ptr %21, align 4
  br label %249

37:                                               ; preds = %9
  br label %38

38:                                               ; preds = %37
  call void @llvm.lifetime.start.p0(i64 8, ptr %22) #7
  store ptr %19, ptr %22, align 8
  call void @llvm.lifetime.start.p0(i64 4, ptr %23) #7
  store i32 0, ptr %23, align 4
  call void @llvm.lifetime.start.p0(i64 8, ptr %24) #7
  store i64 264, ptr %24, align 8
  %39 = load ptr, ptr %22, align 8
  %40 = ptrtoint ptr %39 to i64
  %41 = and i64 %40, 7
  %42 = icmp eq i64 %41, 0
  br i1 %42, label %43, label %66

43:                                               ; preds = %38
  %44 = load i64, ptr %24, align 8
  %45 = and i64 %44, 7
  %46 = icmp eq i64 %45, 0
  br i1 %46, label %47, label %66

47:                                               ; preds = %43
  %48 = load i32, ptr %23, align 4
  %49 = icmp eq i32 %48, 0
  br i1 %49, label %50, label %66

50:                                               ; preds = %47
  %51 = load i64, ptr %24, align 8
  %52 = icmp ule i64 %51, 1024
  br i1 %52, label %53, label %66

53:                                               ; preds = %50
  call void @llvm.lifetime.start.p0(i64 8, ptr %25) #7
  %54 = load ptr, ptr %22, align 8
  store ptr %54, ptr %25, align 8
  call void @llvm.lifetime.start.p0(i64 8, ptr %26) #7
  %55 = load ptr, ptr %25, align 8
  %56 = load i64, ptr %24, align 8
  %57 = getelementptr inbounds nuw i8, ptr %55, i64 %56
  store ptr %57, ptr %26, align 8
  br label %58

58:                                               ; preds = %62, %53
  %59 = load ptr, ptr %25, align 8
  %60 = load ptr, ptr %26, align 8
  %61 = icmp ult ptr %59, %60
  br i1 %61, label %62, label %65

62:                                               ; preds = %58
  %63 = load ptr, ptr %25, align 8
  %64 = getelementptr inbounds nuw i64, ptr %63, i32 1
  store ptr %64, ptr %25, align 8
  store i64 0, ptr %63, align 8
  br label %58, !llvm.loop !40

65:                                               ; preds = %58
  call void @llvm.lifetime.end.p0(i64 8, ptr %26) #7
  call void @llvm.lifetime.end.p0(i64 8, ptr %25) #7
  br label %71

66:                                               ; preds = %50, %47, %43, %38
  %67 = load ptr, ptr %22, align 8
  %68 = load i32, ptr %23, align 4
  %69 = trunc i32 %68 to i8
  %70 = load i64, ptr %24, align 8
  call void @llvm.memset.p0.i64(ptr align 1 %67, i8 %69, i64 %70, i1 false)
  br label %71

71:                                               ; preds = %66, %65
  call void @llvm.lifetime.end.p0(i64 8, ptr %24) #7
  call void @llvm.lifetime.end.p0(i64 4, ptr %23) #7
  call void @llvm.lifetime.end.p0(i64 8, ptr %22) #7
  br label %72

72:                                               ; preds = %71
  br label %73

73:                                               ; preds = %72
  store i32 0, ptr %20, align 4
  br label %74

74:                                               ; preds = %236, %73
  %75 = load i32, ptr %20, align 4
  %76 = load ptr, ptr %12, align 8
  %77 = getelementptr inbounds nuw %struct.IndexOptInfo, ptr %76, i32 0, i32 8
  %78 = load i32, ptr %77, align 8
  %79 = icmp slt i32 %75, %78
  br i1 %79, label %80, label %239

80:                                               ; preds = %74
  call void @llvm.lifetime.start.p0(i64 8, ptr %27) #7
  call void @llvm.lifetime.start.p0(i64 16, ptr %28) #7
  %81 = getelementptr inbounds nuw %struct.ForEachState, ptr %28, i32 0, i32 0
  %82 = load ptr, ptr %14, align 8
  %83 = getelementptr inbounds nuw %struct.IndexClauseSet, ptr %82, i32 0, i32 1
  %84 = load i32, ptr %20, align 4
  %85 = sext i32 %84 to i64
  %86 = getelementptr inbounds [32 x ptr], ptr %83, i64 0, i64 %85
  %87 = load ptr, ptr %86, align 8
  store ptr %87, ptr %81, align 8
  %88 = getelementptr inbounds nuw %struct.ForEachState, ptr %28, i32 0, i32 1
  store i32 0, ptr %88, align 8
  %89 = getelementptr i8, ptr %28, i64 12
  call void @llvm.memset.p0.i64(ptr align 4 %89, i8 0, i64 4, i1 false)
  br label %90

90:                                               ; preds = %139, %80
  %91 = getelementptr inbounds nuw %struct.ForEachState, ptr %28, i32 0, i32 0
  %92 = load ptr, ptr %91, align 8
  %93 = icmp ne ptr %92, null
  br i1 %93, label %94, label %111

94:                                               ; preds = %90
  %95 = getelementptr inbounds nuw %struct.ForEachState, ptr %28, i32 0, i32 1
  %96 = load i32, ptr %95, align 8
  %97 = getelementptr inbounds nuw %struct.ForEachState, ptr %28, i32 0, i32 0
  %98 = load ptr, ptr %97, align 8
  %99 = getelementptr inbounds nuw %struct.List, ptr %98, i32 0, i32 1
  %100 = load i32, ptr %99, align 4
  %101 = icmp slt i32 %96, %100
  br i1 %101, label %102, label %111

102:                                              ; preds = %94
  %103 = getelementptr inbounds nuw %struct.ForEachState, ptr %28, i32 0, i32 0
  %104 = load ptr, ptr %103, align 8
  %105 = getelementptr inbounds nuw %struct.List, ptr %104, i32 0, i32 3
  %106 = load ptr, ptr %105, align 8
  %107 = getelementptr inbounds nuw %struct.ForEachState, ptr %28, i32 0, i32 1
  %108 = load i32, ptr %107, align 8
  %109 = sext i32 %108 to i64
  %110 = getelementptr inbounds %union.ListCell, ptr %106, i64 %109
  store ptr %110, ptr %27, align 8
  br label %112

111:                                              ; preds = %94, %90
  store ptr null, ptr %27, align 8
  br label %112

112:                                              ; preds = %111, %102
  %113 = phi i32 [ 1, %102 ], [ 0, %111 ]
  %114 = icmp ne i32 %113, 0
  br i1 %114, label %116, label %115

115:                                              ; preds = %112
  store i32 9, ptr %21, align 4
  call void @llvm.lifetime.end.p0(i64 16, ptr %28) #7
  br label %143

116:                                              ; preds = %112
  call void @llvm.lifetime.start.p0(i64 8, ptr %29) #7
  %117 = load ptr, ptr %27, align 8
  %118 = load ptr, ptr %117, align 8
  store ptr %118, ptr %29, align 8
  %119 = load ptr, ptr %29, align 8
  %120 = getelementptr inbounds nuw %struct.IndexClause, ptr %119, i32 0, i32 1
  %121 = load ptr, ptr %120, align 8
  %122 = getelementptr inbounds nuw %struct.RestrictInfo, ptr %121, i32 0, i32 11
  %123 = load ptr, ptr %122, align 8
  %124 = load ptr, ptr %17, align 8
  %125 = call zeroext i1 @bms_is_subset(ptr noundef %123, ptr noundef %124)
  br i1 %125, label %126, label %138

126:                                              ; preds = %116
  %127 = getelementptr inbounds nuw %struct.IndexClauseSet, ptr %19, i32 0, i32 1
  %128 = load i32, ptr %20, align 4
  %129 = sext i32 %128 to i64
  %130 = getelementptr inbounds [32 x ptr], ptr %127, i64 0, i64 %129
  %131 = load ptr, ptr %130, align 8
  %132 = load ptr, ptr %29, align 8
  %133 = call ptr @lappend(ptr noundef %131, ptr noundef %132)
  %134 = getelementptr inbounds nuw %struct.IndexClauseSet, ptr %19, i32 0, i32 1
  %135 = load i32, ptr %20, align 4
  %136 = sext i32 %135 to i64
  %137 = getelementptr inbounds [32 x ptr], ptr %134, i64 0, i64 %136
  store ptr %133, ptr %137, align 8
  br label %138

138:                                              ; preds = %126, %116
  call void @llvm.lifetime.end.p0(i64 8, ptr %29) #7
  br label %139

139:                                              ; preds = %138
  %140 = getelementptr inbounds nuw %struct.ForEachState, ptr %28, i32 0, i32 1
  %141 = load i32, ptr %140, align 8
  %142 = add i32 %141, 1
  store i32 %142, ptr %140, align 8
  br label %90, !llvm.loop !41

143:                                              ; preds = %115
  call void @llvm.lifetime.start.p0(i64 16, ptr %30) #7
  %144 = getelementptr inbounds nuw %struct.ForEachState, ptr %30, i32 0, i32 0
  %145 = load ptr, ptr %15, align 8
  %146 = getelementptr inbounds nuw %struct.IndexClauseSet, ptr %145, i32 0, i32 1
  %147 = load i32, ptr %20, align 4
  %148 = sext i32 %147 to i64
  %149 = getelementptr inbounds [32 x ptr], ptr %146, i64 0, i64 %148
  %150 = load ptr, ptr %149, align 8
  store ptr %150, ptr %144, align 8
  %151 = getelementptr inbounds nuw %struct.ForEachState, ptr %30, i32 0, i32 1
  store i32 0, ptr %151, align 8
  %152 = getelementptr i8, ptr %30, i64 12
  call void @llvm.memset.p0.i64(ptr align 4 %152, i8 0, i64 4, i1 false)
  br label %153

153:                                              ; preds = %205, %143
  %154 = getelementptr inbounds nuw %struct.ForEachState, ptr %30, i32 0, i32 0
  %155 = load ptr, ptr %154, align 8
  %156 = icmp ne ptr %155, null
  br i1 %156, label %157, label %174

157:                                              ; preds = %153
  %158 = getelementptr inbounds nuw %struct.ForEachState, ptr %30, i32 0, i32 1
  %159 = load i32, ptr %158, align 8
  %160 = getelementptr inbounds nuw %struct.ForEachState, ptr %30, i32 0, i32 0
  %161 = load ptr, ptr %160, align 8
  %162 = getelementptr inbounds nuw %struct.List, ptr %161, i32 0, i32 1
  %163 = load i32, ptr %162, align 4
  %164 = icmp slt i32 %159, %163
  br i1 %164, label %165, label %174

165:                                              ; preds = %157
  %166 = getelementptr inbounds nuw %struct.ForEachState, ptr %30, i32 0, i32 0
  %167 = load ptr, ptr %166, align 8
  %168 = getelementptr inbounds nuw %struct.List, ptr %167, i32 0, i32 3
  %169 = load ptr, ptr %168, align 8
  %170 = getelementptr inbounds nuw %struct.ForEachState, ptr %30, i32 0, i32 1
  %171 = load i32, ptr %170, align 8
  %172 = sext i32 %171 to i64
  %173 = getelementptr inbounds %union.ListCell, ptr %169, i64 %172
  store ptr %173, ptr %27, align 8
  br label %175

174:                                              ; preds = %157, %153
  store ptr null, ptr %27, align 8
  br label %175

175:                                              ; preds = %174, %165
  %176 = phi i32 [ 1, %165 ], [ 0, %174 ]
  %177 = icmp ne i32 %176, 0
  br i1 %177, label %179, label %178

178:                                              ; preds = %175
  store i32 12, ptr %21, align 4
  br label %209

179:                                              ; preds = %175
  call void @llvm.lifetime.start.p0(i64 8, ptr %31) #7
  %180 = load ptr, ptr %27, align 8
  %181 = load ptr, ptr %180, align 8
  store ptr %181, ptr %31, align 8
  %182 = load ptr, ptr %31, align 8
  %183 = getelementptr inbounds nuw %struct.IndexClause, ptr %182, i32 0, i32 1
  %184 = load ptr, ptr %183, align 8
  %185 = getelementptr inbounds nuw %struct.RestrictInfo, ptr %184, i32 0, i32 11
  %186 = load ptr, ptr %185, align 8
  %187 = load ptr, ptr %17, align 8
  %188 = call zeroext i1 @bms_is_subset(ptr noundef %186, ptr noundef %187)
  br i1 %188, label %189, label %201

189:                                              ; preds = %179
  %190 = getelementptr inbounds nuw %struct.IndexClauseSet, ptr %19, i32 0, i32 1
  %191 = load i32, ptr %20, align 4
  %192 = sext i32 %191 to i64
  %193 = getelementptr inbounds [32 x ptr], ptr %190, i64 0, i64 %192
  %194 = load ptr, ptr %193, align 8
  %195 = load ptr, ptr %31, align 8
  %196 = call ptr @lappend(ptr noundef %194, ptr noundef %195)
  %197 = getelementptr inbounds nuw %struct.IndexClauseSet, ptr %19, i32 0, i32 1
  %198 = load i32, ptr %20, align 4
  %199 = sext i32 %198 to i64
  %200 = getelementptr inbounds [32 x ptr], ptr %197, i64 0, i64 %199
  store ptr %196, ptr %200, align 8
  store i32 12, ptr %21, align 4
  br label %202

201:                                              ; preds = %179
  store i32 0, ptr %21, align 4
  br label %202

202:                                              ; preds = %201, %189
  call void @llvm.lifetime.end.p0(i64 8, ptr %31) #7
  %203 = load i32, ptr %21, align 4
  switch i32 %203, label %209 [
    i32 0, label %204
  ]

204:                                              ; preds = %202
  br label %205

205:                                              ; preds = %204
  %206 = getelementptr inbounds nuw %struct.ForEachState, ptr %30, i32 0, i32 1
  %207 = load i32, ptr %206, align 8
  %208 = add i32 %207, 1
  store i32 %208, ptr %206, align 8
  br label %153, !llvm.loop !42

209:                                              ; preds = %202, %178
  call void @llvm.lifetime.end.p0(i64 16, ptr %30) #7
  br label %210

210:                                              ; preds = %209
  %211 = getelementptr inbounds nuw %struct.IndexClauseSet, ptr %19, i32 0, i32 1
  %212 = load i32, ptr %20, align 4
  %213 = sext i32 %212 to i64
  %214 = getelementptr inbounds [32 x ptr], ptr %211, i64 0, i64 %213
  %215 = load ptr, ptr %214, align 8
  %216 = load ptr, ptr %13, align 8
  %217 = getelementptr inbounds nuw %struct.IndexClauseSet, ptr %216, i32 0, i32 1
  %218 = load i32, ptr %20, align 4
  %219 = sext i32 %218 to i64
  %220 = getelementptr inbounds [32 x ptr], ptr %217, i64 0, i64 %219
  %221 = load ptr, ptr %220, align 8
  %222 = call ptr @list_concat(ptr noundef %215, ptr noundef %221)
  %223 = getelementptr inbounds nuw %struct.IndexClauseSet, ptr %19, i32 0, i32 1
  %224 = load i32, ptr %20, align 4
  %225 = sext i32 %224 to i64
  %226 = getelementptr inbounds [32 x ptr], ptr %223, i64 0, i64 %225
  store ptr %222, ptr %226, align 8
  %227 = getelementptr inbounds nuw %struct.IndexClauseSet, ptr %19, i32 0, i32 1
  %228 = load i32, ptr %20, align 4
  %229 = sext i32 %228 to i64
  %230 = getelementptr inbounds [32 x ptr], ptr %227, i64 0, i64 %229
  %231 = load ptr, ptr %230, align 8
  %232 = icmp ne ptr %231, null
  br i1 %232, label %233, label %235

233:                                              ; preds = %210
  %234 = getelementptr inbounds nuw %struct.IndexClauseSet, ptr %19, i32 0, i32 0
  store i8 1, ptr %234, align 8
  br label %235

235:                                              ; preds = %233, %210
  call void @llvm.lifetime.end.p0(i64 8, ptr %27) #7
  br label %236

236:                                              ; preds = %235
  %237 = load i32, ptr %20, align 4
  %238 = add i32 %237, 1
  store i32 %238, ptr %20, align 4
  br label %74, !llvm.loop !43

239:                                              ; preds = %74
  %240 = load ptr, ptr %10, align 8
  %241 = load ptr, ptr %11, align 8
  %242 = load ptr, ptr %12, align 8
  %243 = load ptr, ptr %16, align 8
  call void @get_index_paths(ptr noundef %240, ptr noundef %241, ptr noundef %242, ptr noundef %19, ptr noundef %243)
  %244 = load ptr, ptr %18, align 8
  %245 = load ptr, ptr %244, align 8
  %246 = load ptr, ptr %17, align 8
  %247 = call ptr @lappend(ptr noundef %245, ptr noundef %246)
  %248 = load ptr, ptr %18, align 8
  store ptr %247, ptr %248, align 8
  store i32 0, ptr %21, align 4
  br label %249

249:                                              ; preds = %239, %36
  call void @llvm.lifetime.end.p0(i64 4, ptr %20) #7
  call void @llvm.lifetime.end.p0(i64 264, ptr %19) #7
  %250 = load i32, ptr %21, align 4
  switch i32 %250, label %252 [
    i32 0, label %251
    i32 1, label %251
  ]

251:                                              ; preds = %249, %249
  ret void

252:                                              ; preds = %249
  unreachable
}