; Function Attrs: nounwind uwtable
define internal fastcc void @get_join_index_paths(ptr noundef %0, ptr noundef %1, ptr noundef %2, ptr noundef nonnull readonly captures(none) %3, ptr noundef nonnull readonly captures(none) %4, ptr noundef nonnull readonly captures(none) %5, ptr noundef nonnull captures(none) %6, ptr noundef %7, ptr noundef nonnull captures(none) %8) unnamed_addr #0 {
  %10 = alloca %struct.IndexClauseSet, align 8
  call void @llvm.lifetime.start.p0(i64 264, ptr nonnull %10) #8
  %11 = load ptr, ptr %8, align 8
  %12 = tail call zeroext i1 @list_member(ptr noundef %11, ptr noundef %7) #8
  br i1 %12, label %75, label %.preheader75.preheader

.preheader75.preheader:                           ; preds = %9
  call void @llvm.memset.p0.i64(ptr noundef nonnull align 8 dereferenceable(264) %10, i8 0, i64 264, i1 false)
  %13 = getelementptr inbounds nuw i8, ptr %2, i64 48
  %14 = load i32, ptr %13, align 8
  %15 = icmp sgt i32 %14, 0
  br i1 %15, label %.lr.ph87, label %._crit_edge88

.lr.ph87:                                         ; preds = %.preheader75.preheader
  %16 = getelementptr inbounds nuw i8, ptr %4, i64 8
  %17 = getelementptr inbounds nuw i8, ptr %10, i64 8
  %18 = getelementptr inbounds nuw i8, ptr %5, i64 8
  %19 = getelementptr inbounds nuw i8, ptr %3, i64 8
  %.promoted = load i8, ptr %10, align 8
  br label %20

20:                                               ; preds = %.lr.ph87, %.thread72
  %21 = phi i8 [ %.promoted, %.lr.ph87 ], [ %spec.select, %.thread72 ]
  %indvars.iv94 = phi i64 [ 0, %.lr.ph87 ], [ %indvars.iv.next95, %.thread72 ]
  %22 = getelementptr inbounds nuw [32 x ptr], ptr %16, i64 0, i64 %indvars.iv94
  %23 = load ptr, ptr %22, align 8
  %24 = getelementptr inbounds nuw i8, ptr %23, i64 4
  %.not = icmp eq ptr %23, null
  br i1 %.not, label %._crit_edge, label %.lr.ph

.lr.ph:                                           ; preds = %20
  %25 = getelementptr inbounds nuw i8, ptr %23, i64 16
  %26 = getelementptr inbounds nuw [32 x ptr], ptr %17, i64 0, i64 %indvars.iv94
  %27 = load i32, ptr %24, align 4
  %28 = icmp sgt i32 %27, 0
  br i1 %28, label %.lr.ph80, label %._crit_edge

._crit_edge:                                      ; preds = %46, %.lr.ph, %20
  %29 = getelementptr inbounds nuw [32 x ptr], ptr %18, i64 0, i64 %indvars.iv94
  %30 = load ptr, ptr %29, align 8
  %.not66 = icmp eq ptr %30, null
  br i1 %.not66, label %.thread72, label %.lr.ph83

.lr.ph83:                                         ; preds = %._crit_edge
  %31 = getelementptr inbounds nuw i8, ptr %30, i64 4
  %32 = getelementptr inbounds nuw i8, ptr %30, i64 16
  %33 = load i32, ptr %31, align 4
  %34 = icmp sgt i32 %33, 0
  br i1 %34, label %.critedge, label %.thread72

.lr.ph80:                                         ; preds = %.lr.ph, %46
  %indvars.iv = phi i64 [ %indvars.iv.next, %46 ], [ 0, %.lr.ph ]
  %35 = load ptr, ptr %25, align 8
  %36 = getelementptr inbounds nuw %union.ListCell, ptr %35, i64 %indvars.iv
  %37 = load ptr, ptr %36, align 8
  %38 = getelementptr inbounds nuw i8, ptr %37, i64 8
  %39 = load ptr, ptr %38, align 8
  %40 = getelementptr inbounds nuw i8, ptr %39, i64 40
  %41 = load ptr, ptr %40, align 8
  %42 = tail call zeroext i1 @bms_is_subset(ptr noundef %41, ptr noundef %7) #8
  br i1 %42, label %43, label %46

43:                                               ; preds = %.lr.ph80
  %44 = load ptr, ptr %26, align 8
  %45 = tail call ptr @lappend(ptr noundef %44, ptr noundef nonnull %37) #8
  store ptr %45, ptr %26, align 8
  br label %46

46:                                               ; preds = %43, %.lr.ph80
  %indvars.iv.next = add nuw nsw i64 %indvars.iv, 1
  %47 = load i32, ptr %24, align 4
  %48 = sext i32 %47 to i64
  %49 = icmp slt i64 %indvars.iv.next, %48
  br i1 %49, label %.lr.ph80, label %._crit_edge

50:                                               ; preds = %.critedge
  %indvars.iv.next92 = add nuw nsw i64 %indvars.iv91, 1
  %51 = load i32, ptr %31, align 4
  %52 = sext i32 %51 to i64
  %53 = icmp slt i64 %indvars.iv.next92, %52
  br i1 %53, label %.critedge, label %.thread72

.critedge:                                        ; preds = %.lr.ph83, %50
  %indvars.iv91 = phi i64 [ %indvars.iv.next92, %50 ], [ 0, %.lr.ph83 ]
  %54 = load ptr, ptr %32, align 8
  %55 = getelementptr inbounds nuw %union.ListCell, ptr %54, i64 %indvars.iv91
  %56 = load ptr, ptr %55, align 8
  %57 = getelementptr inbounds nuw i8, ptr %56, i64 8
  %58 = load ptr, ptr %57, align 8
  %59 = getelementptr inbounds nuw i8, ptr %58, i64 40
  %60 = load ptr, ptr %59, align 8
  %61 = tail call zeroext i1 @bms_is_subset(ptr noundef %60, ptr noundef %7) #8
  br i1 %61, label %.split, label %50

.split:                                           ; preds = %.critedge
  %62 = getelementptr inbounds nuw [32 x ptr], ptr %17, i64 0, i64 %indvars.iv94
  %63 = load ptr, ptr %62, align 8
  %64 = tail call ptr @lappend(ptr noundef %63, ptr noundef nonnull %56) #8
  store ptr %64, ptr %62, align 8
  br label %.thread72

.thread72:                                        ; preds = %50, %._crit_edge, %.lr.ph83, %.split
  %65 = getelementptr inbounds nuw [32 x ptr], ptr %17, i64 0, i64 %indvars.iv94
  %66 = load ptr, ptr %65, align 8
  %67 = getelementptr inbounds nuw [32 x ptr], ptr %19, i64 0, i64 %indvars.iv94
  %68 = load ptr, ptr %67, align 8
  %69 = tail call ptr @list_concat(ptr noundef %66, ptr noundef %68) #8
  store ptr %69, ptr %65, align 8
  %.not68 = icmp eq ptr %69, null
  %spec.select = select i1 %.not68, i8 %21, i8 1
  %indvars.iv.next95 = add nuw nsw i64 %indvars.iv94, 1
  %70 = load i32, ptr %13, align 8
  %71 = sext i32 %70 to i64
  %72 = icmp slt i64 %indvars.iv.next95, %71
  br i1 %72, label %20, label %._crit_edge88.loopexit, !llvm.loop !24

._crit_edge88.loopexit:                           ; preds = %.thread72
  store i8 %spec.select, ptr %10, align 8
  br label %._crit_edge88

._crit_edge88:                                    ; preds = %._crit_edge88.loopexit, %.preheader75.preheader
  call fastcc void @get_index_paths(ptr noundef %0, ptr noundef %1, ptr noundef nonnull %2, ptr noundef %10, ptr noundef %6)
  %73 = load ptr, ptr %8, align 8
  %74 = tail call ptr @lappend(ptr noundef %73, ptr noundef %7) #8
  store ptr %74, ptr %8, align 8
  br label %75

75:                                               ; preds = %9, %._crit_edge88
  call void @llvm.lifetime.end.p0(i64 264, ptr nonnull %10) #8
  ret void
}